******************************************************************************
                  MSP430 Linker PC v4.1.5                      
******************************************************************************
>> Linked Mon Oct 11 15:48:56 2021

OUTPUT FILE NAME:   <lab9.out>
ENTRY POINT SYMBOL: "_c_int00"  address: 00003128


MEMORY CONFIGURATION

         name            origin    length      used     unused   attr    fill
----------------------  --------  ---------  --------  --------  ----  --------
  SFR                   00000000   00000010  00000000  00000010  RWIX
  PERIPHERALS_8BIT      00000010   000000f0  00000000  000000f0  RWIX
  PERIPHERALS_16BIT     00000100   00000100  00000000  00000100  RWIX
  INFOD                 00001000   00000040  00000000  00000040  RWIX
  INFOC                 00001040   00000040  00000000  00000040  RWIX
  INFOB                 00001080   00000040  00000000  00000040  RWIX
  INFOA                 000010c0   00000040  00000000  00000040  RWIX
  RAM                   00001100   00002000  000000c0  00001f40  RWIX
  FLASH                 00003100   0000cec0  00000d2e  0000c192  RWIX
  INT00                 0000ffc0   00000002  00000000  00000002  RWIX
  INT01                 0000ffc2   00000002  00000000  00000002  RWIX
  INT02                 0000ffc4   00000002  00000000  00000002  RWIX
  INT03                 0000ffc6   00000002  00000000  00000002  RWIX
  INT04                 0000ffc8   00000002  00000000  00000002  RWIX
  INT05                 0000ffca   00000002  00000000  00000002  RWIX
  INT06                 0000ffcc   00000002  00000000  00000002  RWIX
  INT07                 0000ffce   00000002  00000000  00000002  RWIX
  INT08                 0000ffd0   00000002  00000000  00000002  RWIX
  INT09                 0000ffd2   00000002  00000000  00000002  RWIX
  INT10                 0000ffd4   00000002  00000000  00000002  RWIX
  INT11                 0000ffd6   00000002  00000000  00000002  RWIX
  INT12                 0000ffd8   00000002  00000000  00000002  RWIX
  INT13                 0000ffda   00000002  00000000  00000002  RWIX
  INT14                 0000ffdc   00000002  00000000  00000002  RWIX
  INT15                 0000ffde   00000002  00000000  00000002  RWIX
  INT16                 0000ffe0   00000002  00000000  00000002  RWIX
  INT17                 0000ffe2   00000002  00000000  00000002  RWIX
  INT18                 0000ffe4   00000002  00000002  00000000  RWIX
  INT19                 0000ffe6   00000002  00000000  00000002  RWIX
  INT20                 0000ffe8   00000002  00000000  00000002  RWIX
  INT21                 0000ffea   00000002  00000000  00000002  RWIX
  INT22                 0000ffec   00000002  00000002  00000000  RWIX
  INT23                 0000ffee   00000002  00000000  00000002  RWIX
  INT24                 0000fff0   00000002  00000000  00000002  RWIX
  INT25                 0000fff2   00000002  00000000  00000002  RWIX
  INT26                 0000fff4   00000002  00000000  00000002  RWIX
  INT27                 0000fff6   00000002  00000000  00000002  RWIX
  INT28                 0000fff8   00000002  00000000  00000002  RWIX
  INT29                 0000fffa   00000002  00000000  00000002  RWIX
  INT30                 0000fffc   00000002  00000000  00000002  RWIX
  RESET                 0000fffe   00000002  00000002  00000000  RWIX
  FLASH2                00010000   0000a000  00000000  0000a000  RWIX


SECTION ALLOCATION MAP

 output                                  attributes/
section   page    origin      length       input sections
--------  ----  ----------  ----------   ----------------
.init_array 
*          0    00003100    00000000     UNINITIALIZED

.data      0    00001100    0000006c     
                  00001100    00000029     main.obj (.data:Mang)
                  00001129    00000001     --HOLE--
                  0000112a    00000029     main.obj (.data:buffer)
                  00001153    00000001     --HOLE--
                  00001154    0000000e     main.obj (.data)
                  00001162    0000000a     main.obj (.data:set_giatri)

.TI.persistent 
*          0    00001100    00000000     UNINITIALIZED

.bss       0    0000116c    00000004     UNINITIALIZED
                  0000116c    00000004     main.obj (.bss)

.TI.noinit 
*          0    0000116c    00000000     UNINITIALIZED

.stack     0    000030b0    00000050     UNINITIALIZED
                  000030b0    00000002     rts430x_lc_sd_eabi.lib : boot.obj (.stack)
                  000030b2    0000004e     --HOLE--

.text:_isr 
*          0    00003100    00000058     
                  00003100    00000028     main.obj (.text:_isr:USCIAB1TX_ISR)
                  00003128    0000001a     rts430x_lc_sd_eabi.lib : boot.obj (.text:_isr:_c_int00_noexit)
                  00003142    00000016     main.obj (.text:_isr:TimerInterruptCCR0)

.text      0    00003158    00000c94     
                  00003158    000004ae     main.obj (.text:display)
                  00003606    00000168     main.obj (.text:setup_button)
                  0000376e    00000132     main.obj (.text:blink_number)
                  000038a0    00000100     main.obj (.text:no_display)
                  000039a0    000000d6     rts430x_lc_sd_eabi.lib : copy_decompress_rle.obj (.text:__TI_decompress_rle_core)
                  00003a76    0000006e                            : autoinit.obj (.text:_auto_init)
                  00003ae4    0000005a     main.obj (.text:main)
                  00003b3e    00000052     main.obj (.text:second)
                  00003b90    00000050     main.obj (.text:minutes)
                  00003be0    0000004e     main.obj (.text:hour)
                  00003c2e    00000040     rts430x_lc_sd_eabi.lib : cpy_util.obj (.text:__memcpy_far)
                  00003c6e    0000003c                            : copy_decompress_none.obj (.text:decompress:none:__TI_decompress_none)
                  00003caa    00000038                            : copy_zero_init.obj (.text:decompress:ZI:__TI_zero_init)
                  00003ce2    00000030     main.obj (.text:setup_I2CB1)
                  00003d12    0000002c     rts430x_lc_sd_eabi.lib : div16s.obj (.text)
                  00003d3e    0000001e     main.obj (.text:Time)
                  00003d5c    0000001c     main.obj (.text:transmit_i2c)
                  00003d78    00000018     main.obj (.text:convert_data)
                  00003d90    00000018     main.obj (.text:setup_SMCLK)
                  00003da8    00000018     main.obj (.text:setup_timer)
                  00003dc0    00000016     rts430x_lc_sd_eabi.lib : div16u.obj (.text)
                  00003dd6    0000000e                            : copy_decompress_rle.obj (.text:decompress:rle24:__TI_decompress_rle24)
                  00003de4    00000004                            : pre_init.obj (.text:_system_pre_init)
                  00003de8    00000004                            : exit.obj (.text:abort)

.cinit     0    00003dec    00000042     
                  00003dec    00000020     (.cinit..data.load) [load image, compression = rle]
                  00003e0c    0000000c     (__TI_handler_table)
                  00003e18    00000006     (.cinit..bss.load) [load image, compression = zero_init]
                  00003e1e    00000010     (__TI_cinit_table)

USCIAB1TX 
*          0    0000ffe4    00000002     
                  0000ffe4    00000002     main.obj (.int18)

TIMERA0    0    0000ffec    00000002     
                  0000ffec    00000002     main.obj (.int22)

.reset     0    0000fffe    00000002     
                  0000fffe    00000002     rts430x_lc_sd_eabi.lib : boot.obj (.reset)


LINKER GENERATED COPY TABLES

__TI_cinit_table @ 00003e1e records: 2, size/record: 8, table size: 16
	.data: load addr=00003dec, load size=00000020 bytes, run addr=00001100, run size=0000006c bytes, compression=rle
	.bss: load addr=00003e18, load size=00000006 bytes, run addr=0000116c, run size=00000004 bytes, compression=zero_init


LINKER GENERATED HANDLER TABLE

__TI_handler_table @ 00003e0c records: 3, size/record: 4, table size: 12
	index: 0, handler: __TI_zero_init
	index: 1, handler: __TI_decompress_rle24
	index: 2, handler: __TI_decompress_none


GLOBAL SYMBOLS: SORTED ALPHABETICALLY BY Name 

address    name
--------   ----
00000046   BTCNT1
00000046   BTCNT12
00000047   BTCNT2
00000040   BTCTL
00003de8   C$$EXIT
00000059   CACTL1
0000005a   CACTL2
0000005b   CAPD
000001d0   DMA0CTL
000001d6   DMA0DA
000001d6   DMA0DAL
000001d2   DMA0SA
000001d2   DMA0SAL
000001da   DMA0SZ
000001dc   DMA1CTL
000001e2   DMA1DA
000001e2   DMA1DAL
000001de   DMA1SA
000001de   DMA1SAL
000001e6   DMA1SZ
000001e8   DMA2CTL
000001ee   DMA2DA
000001ee   DMA2DAL
000001ea   DMA2SA
000001ea   DMA2SAL
000001f2   DMA2SZ
00000122   DMACTL0
00000124   DMACTL1
00000126   DMAIV
00000128   FCTL1
0000012a   FCTL2
0000012c   FCTL3
000001be   FCTL4
00000053   FLL_CTL0
00000054   FLL_CTL1
00000055   FLL_CTL2
00001159   G1
0000115a   G2
00001155   H1
00001156   H2
00000000   IE1
00000001   IE2
00000002   IFG1
00000003   IFG2
0000115b   K1
0000115c   K2
0000115d   K3
00001160   KT
00000090   LCDACTL
000000ac   LCDAPCTL0
000000ad   LCDAPCTL1
000000ae   LCDAVCTL0
000000af   LCDAVCTL1
00000091   LCDM1
0000009a   LCDM10
0000009b   LCDM11
0000009c   LCDM12
0000009d   LCDM13
0000009e   LCDM14
0000009f   LCDM15
000000a0   LCDM16
000000a1   LCDM17
000000a2   LCDM18
000000a3   LCDM19
00000092   LCDM2
000000a4   LCDM20
00000093   LCDM3
00000094   LCDM4
00000095   LCDM5
00000096   LCDM6
00000097   LCDM7
00000098   LCDM8
00000099   LCDM9
00000134   MAC
0000014a   MAC32H
0000014a   MAC32H_B
00000148   MAC32L
00000148   MAC32L_B
00000136   MACS
0000014e   MACS32H
0000014e   MACS32H_B
0000014c   MACS32L
0000014c   MACS32L_B
00000136   MACS_B
00000134   MAC_B
00000130   MPY
0000015c   MPY32CTL0
00000142   MPY32H
00000142   MPY32H_B
00000140   MPY32L
00000140   MPY32L_B
00000132   MPYS
00000146   MPYS32H
00000146   MPYS32H_B
00000144   MPYS32L
00000144   MPYS32L_B
00000132   MPYS_B
00000130   MPY_B
00001100   Mang
00000138   OP2
00000152   OP2H
00000152   OP2H_B
00000150   OP2L
00000150   OP2L_B
00000138   OP2_B
00001157   P1
0000000d   P10DIR
00000009   P10IN
0000000b   P10OUT
00000017   P10REN
0000000f   P10SEL
00000022   P1DIR
00000025   P1IE
00000024   P1IES
00000023   P1IFG
00000020   P1IN
00000021   P1OUT
00000027   P1REN
00000026   P1SEL
00001158   P2
0000002a   P2DIR
0000002d   P2IE
0000002c   P2IES
0000002b   P2IFG
00000028   P2IN
00000029   P2OUT
0000002f   P2REN
0000002e   P2SEL
0000001a   P3DIR
00000018   P3IN
00000019   P3OUT
00000010   P3REN
0000001b   P3SEL
0000001e   P4DIR
0000001c   P4IN
0000001d   P4OUT
00000011   P4REN
0000001f   P4SEL
00000032   P5DIR
00000030   P5IN
00000031   P5OUT
00000012   P5REN
00000033   P5SEL
0000003c   P7DIR
00000038   P7IN
0000003a   P7OUT
00000014   P7REN
0000003e   P7SEL
0000003d   P8DIR
00000039   P8IN
0000003b   P8OUT
00000015   P8REN
0000003f   P8SEL
0000000c   P9DIR
00000008   P9IN
0000000a   P9OUT
00000016   P9REN
0000000e   P9SEL
0000003c   PADIR
00000038   PAIN
0000003a   PAOUT
00000014   PAREN
0000003e   PASEL
0000000c   PBDIR
00000008   PBIN
0000000a   PBOUT
00000016   PBREN
0000000e   PBSEL
00000154   RES0
00000156   RES1
00000158   RES2
0000015a   RES3
0000013c   RESHI
0000013a   RESLO
00000041   RTCCTL
0000004c   RTCDATE
0000004c   RTCDAY
0000004d   RTCMON
00000042   RTCNT1
00000043   RTCNT2
00000044   RTCNT3
00000045   RTCNT4
00000042   RTCTIM0
00000044   RTCTIM1
00000040   RTCTL
0000004e   RTCYEAR
0000004f   RTCYEARH
0000004e   RTCYEARL
00000050   SCFI0
00000051   SCFI1
00000052   SCFQCTL
00000102   SD16CCTL0
00000104   SD16CCTL1
00000106   SD16CCTL2
00000108   SD16CCTL3
0000010a   SD16CCTL4
0000010c   SD16CCTL5
000000b7   SD16CONF0
000000bf   SD16CONF1
00000100   SD16CTL
000000b0   SD16INCTL0
000000b1   SD16INCTL1
000000b2   SD16INCTL2
000000b3   SD16INCTL3
000000b4   SD16INCTL4
000000b5   SD16INCTL5
000001ae   SD16IV
00000110   SD16MEM0
00000112   SD16MEM1
00000114   SD16MEM2
00000116   SD16MEM3
00000118   SD16MEM4
0000011a   SD16MEM5
000000b8   SD16PRE0
000000b9   SD16PRE1
000000ba   SD16PRE2
000000bb   SD16PRE3
000000bc   SD16PRE4
000000bd   SD16PRE5
0000013e   SUMEXT
00000056   SVSCTL
00000172   TACCR0
00000174   TACCR1
00000176   TACCR2
00000162   TACCTL0
00000164   TACCTL1
00000166   TACCTL2
00000160   TACTL
0000012e   TAIV
00000170   TAR
00000192   TBCCR0
00000194   TBCCR1
00000196   TBCCR2
00000182   TBCCTL0
00000184   TBCCTL1
00000186   TBCCTL2
00000180   TBCTL
0000011e   TBIV
00000190   TBR
00003d3e   Time
00003142   TimerInterruptCCR0
0000116e   Tx_byte
0000116c   Tx_data
00000006   UC1IE
00000007   UC1IFG
0000005d   UCA0ABCTL
00000062   UCA0BR0
00000063   UCA0BR1
00000060   UCA0CTL0
00000061   UCA0CTL1
0000005f   UCA0IRRCTL
0000005e   UCA0IRTCTL
00000064   UCA0MCTL
00000066   UCA0RXBUF
00000065   UCA0STAT
00000067   UCA0TXBUF
000000cd   UCA1ABCTL
000000d2   UCA1BR0
000000d3   UCA1BR1
000000d0   UCA1CTL0
000000d1   UCA1CTL1
000000cf   UCA1IRRCTL
000000ce   UCA1IRTCTL
000000d4   UCA1MCTL
000000d6   UCA1RXBUF
000000d5   UCA1STAT
000000d7   UCA1TXBUF
0000006a   UCB0BR0
0000006b   UCB0BR1
00000068   UCB0CTL0
00000069   UCB0CTL1
0000006c   UCB0I2CIE
0000016c   UCB0I2COA
0000016e   UCB0I2CSA
0000006e   UCB0RXBUF
0000006d   UCB0STAT
0000006f   UCB0TXBUF
000000da   UCB1BR0
000000db   UCB1BR1
000000d8   UCB1CTL0
000000d9   UCB1CTL1
000000dc   UCB1I2CIE
0000017c   UCB1I2COA
0000017e   UCB1I2CSA
000000de   UCB1RXBUF
000000dd   UCB1STAT
000000df   UCB1TXBUF
00003100   USCIAB1TX_ISR
00000120   WDTCTL
00003100   __STACK_END
00000050   __STACK_SIZE
00003e1e   __TI_CINIT_Base
00003e2e   __TI_CINIT_Limit
00003e0c   __TI_Handler_Table_Base
00003e18   __TI_Handler_Table_Limit
UNDEFED    __TI_INITARRAY_Base
UNDEFED    __TI_INITARRAY_Limit
00000001   __TI_args_main
00003c6e   __TI_decompress_none
00003dd6   __TI_decompress_rle24
00000001   __TI_exit
00003caa   __TI_zero_init
ffffffff   __binit__
ffffffff   __c_args__
00003c2e   __memcpy_far
00003d12   __mspabi_divi
00003dc0   __mspabi_divu
00003d12   __mspabi_remi
00003dc0   __mspabi_remu
00003a76   _auto_init
00003128   _c_int00
00003128   _c_int00_noexit
0000fffe   _reset_vector
000030b0   _stack
00003de4   _system_pre_init
00003de8   abort
ffffffff   binit
0000376e   blink_number
0000112a   buffer
00003d78   convert_data
0000115e   count
00003158   display
00003be0   hour
00003ae4   main
00003b90   minutes
000038a0   no_display
00003b3e   second
00001154   set_P2
00001162   set_giatri
00003ce2   setup_I2CB1
00003d90   setup_SMCLK
00003606   setup_button
00003da8   setup_timer
0000116f   transmit_bit
00003d5c   transmit_i2c


GLOBAL SYMBOLS: SORTED BY Symbol Address 

address    name
--------   ----
00000000   IE1
00000001   IE2
00000001   __TI_args_main
00000001   __TI_exit
00000002   IFG1
00000003   IFG2
00000006   UC1IE
00000007   UC1IFG
00000008   P9IN
00000008   PBIN
00000009   P10IN
0000000a   P9OUT
0000000a   PBOUT
0000000b   P10OUT
0000000c   P9DIR
0000000c   PBDIR
0000000d   P10DIR
0000000e   P9SEL
0000000e   PBSEL
0000000f   P10SEL
00000010   P3REN
00000011   P4REN
00000012   P5REN
00000014   P7REN
00000014   PAREN
00000015   P8REN
00000016   P9REN
00000016   PBREN
00000017   P10REN
00000018   P3IN
00000019   P3OUT
0000001a   P3DIR
0000001b   P3SEL
0000001c   P4IN
0000001d   P4OUT
0000001e   P4DIR
0000001f   P4SEL
00000020   P1IN
00000021   P1OUT
00000022   P1DIR
00000023   P1IFG
00000024   P1IES
00000025   P1IE
00000026   P1SEL
00000027   P1REN
00000028   P2IN
00000029   P2OUT
0000002a   P2DIR
0000002b   P2IFG
0000002c   P2IES
0000002d   P2IE
0000002e   P2SEL
0000002f   P2REN
00000030   P5IN
00000031   P5OUT
00000032   P5DIR
00000033   P5SEL
00000038   P7IN
00000038   PAIN
00000039   P8IN
0000003a   P7OUT
0000003a   PAOUT
0000003b   P8OUT
0000003c   P7DIR
0000003c   PADIR
0000003d   P8DIR
0000003e   P7SEL
0000003e   PASEL
0000003f   P8SEL
00000040   BTCTL
00000040   RTCTL
00000041   RTCCTL
00000042   RTCNT1
00000042   RTCTIM0
00000043   RTCNT2
00000044   RTCNT3
00000044   RTCTIM1
00000045   RTCNT4
00000046   BTCNT1
00000046   BTCNT12
00000047   BTCNT2
0000004c   RTCDATE
0000004c   RTCDAY
0000004d   RTCMON
0000004e   RTCYEAR
0000004e   RTCYEARL
0000004f   RTCYEARH
00000050   SCFI0
00000050   __STACK_SIZE
00000051   SCFI1
00000052   SCFQCTL
00000053   FLL_CTL0
00000054   FLL_CTL1
00000055   FLL_CTL2
00000056   SVSCTL
00000059   CACTL1
0000005a   CACTL2
0000005b   CAPD
0000005d   UCA0ABCTL
0000005e   UCA0IRTCTL
0000005f   UCA0IRRCTL
00000060   UCA0CTL0
00000061   UCA0CTL1
00000062   UCA0BR0
00000063   UCA0BR1
00000064   UCA0MCTL
00000065   UCA0STAT
00000066   UCA0RXBUF
00000067   UCA0TXBUF
00000068   UCB0CTL0
00000069   UCB0CTL1
0000006a   UCB0BR0
0000006b   UCB0BR1
0000006c   UCB0I2CIE
0000006d   UCB0STAT
0000006e   UCB0RXBUF
0000006f   UCB0TXBUF
00000090   LCDACTL
00000091   LCDM1
00000092   LCDM2
00000093   LCDM3
00000094   LCDM4
00000095   LCDM5
00000096   LCDM6
00000097   LCDM7
00000098   LCDM8
00000099   LCDM9
0000009a   LCDM10
0000009b   LCDM11
0000009c   LCDM12
0000009d   LCDM13
0000009e   LCDM14
0000009f   LCDM15
000000a0   LCDM16
000000a1   LCDM17
000000a2   LCDM18
000000a3   LCDM19
000000a4   LCDM20
000000ac   LCDAPCTL0
000000ad   LCDAPCTL1
000000ae   LCDAVCTL0
000000af   LCDAVCTL1
000000b0   SD16INCTL0
000000b1   SD16INCTL1
000000b2   SD16INCTL2
000000b3   SD16INCTL3
000000b4   SD16INCTL4
000000b5   SD16INCTL5
000000b7   SD16CONF0
000000b8   SD16PRE0
000000b9   SD16PRE1
000000ba   SD16PRE2
000000bb   SD16PRE3
000000bc   SD16PRE4
000000bd   SD16PRE5
000000bf   SD16CONF1
000000cd   UCA1ABCTL
000000ce   UCA1IRTCTL
000000cf   UCA1IRRCTL
000000d0   UCA1CTL0
000000d1   UCA1CTL1
000000d2   UCA1BR0
000000d3   UCA1BR1
000000d4   UCA1MCTL
000000d5   UCA1STAT
000000d6   UCA1RXBUF
000000d7   UCA1TXBUF
000000d8   UCB1CTL0
000000d9   UCB1CTL1
000000da   UCB1BR0
000000db   UCB1BR1
000000dc   UCB1I2CIE
000000dd   UCB1STAT
000000de   UCB1RXBUF
000000df   UCB1TXBUF
00000100   SD16CTL
00000102   SD16CCTL0
00000104   SD16CCTL1
00000106   SD16CCTL2
00000108   SD16CCTL3
0000010a   SD16CCTL4
0000010c   SD16CCTL5
00000110   SD16MEM0
00000112   SD16MEM1
00000114   SD16MEM2
00000116   SD16MEM3
00000118   SD16MEM4
0000011a   SD16MEM5
0000011e   TBIV
00000120   WDTCTL
00000122   DMACTL0
00000124   DMACTL1
00000126   DMAIV
00000128   FCTL1
0000012a   FCTL2
0000012c   FCTL3
0000012e   TAIV
00000130   MPY
00000130   MPY_B
00000132   MPYS
00000132   MPYS_B
00000134   MAC
00000134   MAC_B
00000136   MACS
00000136   MACS_B
00000138   OP2
00000138   OP2_B
0000013a   RESLO
0000013c   RESHI
0000013e   SUMEXT
00000140   MPY32L
00000140   MPY32L_B
00000142   MPY32H
00000142   MPY32H_B
00000144   MPYS32L
00000144   MPYS32L_B
00000146   MPYS32H
00000146   MPYS32H_B
00000148   MAC32L
00000148   MAC32L_B
0000014a   MAC32H
0000014a   MAC32H_B
0000014c   MACS32L
0000014c   MACS32L_B
0000014e   MACS32H
0000014e   MACS32H_B
00000150   OP2L
00000150   OP2L_B
00000152   OP2H
00000152   OP2H_B
00000154   RES0
00000156   RES1
00000158   RES2
0000015a   RES3
0000015c   MPY32CTL0
00000160   TACTL
00000162   TACCTL0
00000164   TACCTL1
00000166   TACCTL2
0000016c   UCB0I2COA
0000016e   UCB0I2CSA
00000170   TAR
00000172   TACCR0
00000174   TACCR1
00000176   TACCR2
0000017c   UCB1I2COA
0000017e   UCB1I2CSA
00000180   TBCTL
00000182   TBCCTL0
00000184   TBCCTL1
00000186   TBCCTL2
00000190   TBR
00000192   TBCCR0
00000194   TBCCR1
00000196   TBCCR2
000001ae   SD16IV
000001be   FCTL4
000001d0   DMA0CTL
000001d2   DMA0SA
000001d2   DMA0SAL
000001d6   DMA0DA
000001d6   DMA0DAL
000001da   DMA0SZ
000001dc   DMA1CTL
000001de   DMA1SA
000001de   DMA1SAL
000001e2   DMA1DA
000001e2   DMA1DAL
000001e6   DMA1SZ
000001e8   DMA2CTL
000001ea   DMA2SA
000001ea   DMA2SAL
000001ee   DMA2DA
000001ee   DMA2DAL
000001f2   DMA2SZ
00001100   Mang
0000112a   buffer
00001154   set_P2
00001155   H1
00001156   H2
00001157   P1
00001158   P2
00001159   G1
0000115a   G2
0000115b   K1
0000115c   K2
0000115d   K3
0000115e   count
00001160   KT
00001162   set_giatri
0000116c   Tx_data
0000116e   Tx_byte
0000116f   transmit_bit
000030b0   _stack
00003100   USCIAB1TX_ISR
00003100   __STACK_END
00003128   _c_int00
00003128   _c_int00_noexit
00003142   TimerInterruptCCR0
00003158   display
00003606   setup_button
0000376e   blink_number
000038a0   no_display
00003a76   _auto_init
00003ae4   main
00003b3e   second
00003b90   minutes
00003be0   hour
00003c2e   __memcpy_far
00003c6e   __TI_decompress_none
00003caa   __TI_zero_init
00003ce2   setup_I2CB1
00003d12   __mspabi_divi
00003d12   __mspabi_remi
00003d3e   Time
00003d5c   transmit_i2c
00003d78   convert_data
00003d90   setup_SMCLK
00003da8   setup_timer
00003dc0   __mspabi_divu
00003dc0   __mspabi_remu
00003dd6   __TI_decompress_rle24
00003de4   _system_pre_init
00003de8   C$$EXIT
00003de8   abort
00003e0c   __TI_Handler_Table_Base
00003e18   __TI_Handler_Table_Limit
00003e1e   __TI_CINIT_Base
00003e2e   __TI_CINIT_Limit
0000fffe   _reset_vector
ffffffff   __binit__
ffffffff   __c_args__
ffffffff   binit
UNDEFED    __TI_INITARRAY_Base
UNDEFED    __TI_INITARRAY_Limit

[335 symbols]
